(lp0
(S'Poly'
p1
(I2
I310
tp2
(lp3
(I114
I11
tp4
a(I214
I15
tp5
a(I383
I30
tp6
atp7
a(g1
g2
(lp8
g4
ag6
a(I593
I52
tp9
atp10
a(g1
g2
(lp11
(I938
I22
tp12
a(I842
I15
tp13
a(I558
I-15
tp14
atp15
a(g1
g2
(lp16
(I342
I-22
tp17
a(I276
I-16
tp18
a(I0
I0
tp19
atp20
a(S'Text'
p21
(I661
I208
tp22
S'TEST TEST TEXT TEXT TEST TEST TEXT TESXT EST EST ASJ;LKAJ DS'
p23
tp24
a(lp25
S'Climber'
p26
a(I506
I253
tp27
aa.