(lp0
(S'Poly'
p1
(I54
I278
tp2
(lp3
(I0
I0
tp4
a(I12
I5
tp5
a(I10
I24
tp6
atp7
a(g1
g2
(lp8
(I86
I30
tp9
a(I89
I20
tp10
a(I94
I7
tp11
atp12
a(g1
g2
(lp13
g9
ag11
a(I103
I1
tp14
atp15
a(g1
g2
(lp16
(I81
I44
tp17
ag9
ag14
atp18
a(g1
g2
(lp19
(I75
I59
tp20
ag17
ag14
atp21
a(g1
g2
(lp22
g20
ag14
a(I104
I14
tp23
atp24
a(g1
g2
(lp25
g20
ag23
a(I102
I34
tp26
atp27
a(g1
g2
(lp28
g20
ag26
a(I100
I51
tp29
atp30
a(g1
g2
(lp31
g29
a(I94
I66
tp32
a(I69
I80
tp33
atp34
a(g1
g2
(lp35
g33
a(I35
I84
tp36
a(I9
I72
tp37
atp38
a(g1
g2
(lp39
g37
a(I-3
I54
tp40
a(I-5
I28
tp41
atp42
a(g1
g2
(lp43
g41
ag4
ag6
atp44
a(g1
g2
(lp45
(I66
I68
tp46
ag20
ag29
atp47
a(g1
g2
(lp48
g46
ag29
ag33
atp49
a(g1
g2
(lp50
(I39
I69
tp51
ag46
ag33
atp52
a(g1
g2
(lp53
g51
ag33
ag37
atp54
a(g1
g2
(lp55
g37
ag41
ag6
atp56
a(g1
g2
(lp57
g37
ag6
a(I13
I41
tp58
atp59
a(g1
g2
(lp60
(I29
I65
tp61
ag51
ag37
atp62
a(g1
g2
(lp63
(I19
I53
tp64
ag61
ag37
atp65
a(g1
g2
(lp66
g58
ag64
ag37
atp67
a(S'Climber'
p68
(I80
I306
tp69
tp70
a(S'Rope'
p71
(I261
I252
tp72
I4
tp73
a(S'DeathBox'
p74
(I430
I435
tp75
(I305
I17
tp76
tp77
a(g1
(I568
I424
tp78
(lp79
(I136
I-61
tp80
a(I153
I-77
tp81
a(I152
I-63
tp82
atp83
a(g1
g78
(lp84
(I105
I-40
tp85
ag80
ag82
atp86
a(g1
g78
(lp87
g85
ag82
a(I144
I-42
tp88
atp89
a(g1
g78
(lp90
g88
a(I130
I-22
tp91
a(I76
I-5
tp92
atp93
a(g1
g78
(lp94
(I40
I-3
tp95
ag4
a(I69
I-20
tp96
atp97
a(g1
g78
(lp98
g95
ag96
ag85
atp99
a(g1
g78
(lp100
g85
ag88
ag92
atp101
a(g1
g78
(lp102
g95
ag85
ag92
atp103
a(g1
(I721
I348
tp104
(lp105
g4
a(I24
I-34
tp106
a(I52
I-43
tp107
a(I74
I-33
tp108
a(I75
I-9
tp109
a(I67
I11
tp110
a(I40
I19
tp111
a(I34
I20
tp112
atp113
a(S'Spring'
p114
(I865
I614
tp115
tp116
a(S'Block'
p117
(I919
I346
tp118
(I36
I-575
tp119
tp120
a(g117
(I979
I623
tp121
(I106
I30
tp122
tp123
a(S'Goal'
p124
(I961
I593
tp125
tp126
a(g117
(I1016
I305
tp127
(I-14
I-601
tp128
tp129
a(S'Circle'
p130
(I918
I71
tp131
F22.0
tp132
a(g1
(I109
I530
tp133
(lp134
g4
a(I17
I-25
tp135
a(I52
I-29
tp136
a(I69
I-14
tp137
a(I73
I0
tp138
a(I72
I14
tp139
a(I60
I29
tp140
a(I31
I33
tp141
a(I4
I31
tp142
a(I-1
I21
tp143
atp144
a(g1
(I184
I536
tp145
(lp146
(I-81
I-33
tp147
a(I-72
I-16
tp148
a(I-99
I-21
tp149
atp150
a(g1
g145
(lp151
(I-75
I-66
tp152
ag147
ag149
atp153
a(g1
g145
(lp154
g152
ag149
a(I-102
I-56
tp155
atp156
a(g1
g145
(lp157
(I-59
I-85
tp158
ag152
ag155
atp159
a(g1
g145
(lp160
g158
ag155
a(I-96
I-86
tp161
atp162
a(g1
g145
(lp163
(I-34
I-86
tp164
ag158
ag161
atp165
a(g1
g145
(lp166
g161
a(I-86
I-98
tp167
a(I-54
I-114
tp168
atp169
a(g1
g145
(lp170
g168
a(I-26
I-113
tp171
a(I5
I-96
tp172
atp173
a(g1
g145
(lp174
g172
a(I21
I-71
tp175
a(I26
I-42
tp176
atp177
a(g1
g145
(lp178
g176
a(I33
I10
tp179
a(I18
I26
tp180
atp181
a(g1
g145
(lp182
g180
ag4
a(I12
I-17
tp183
atp184
a(g1
g145
(lp185
g164
ag161
ag168
atp186
a(g1
g145
(lp187
(I-3
I-76
tp188
ag164
ag168
atp189
a(g1
g145
(lp190
g188
ag168
ag172
atp191
a(g1
g145
(lp192
g188
ag172
ag176
atp193
a(g1
g145
(lp194
g176
ag180
ag183
atp195
a(g1
g145
(lp196
(I9
I-60
tp197
ag188
ag176
atp198
a(g1
g145
(lp199
(I16
I-35
tp200
ag197
ag176
atp201
a(g1
g145
(lp202
g183
ag200
ag176
atp203
a(g68
(I141
I476
tp204
tp205
a.