(lp0
(S'Poly'
p1
(I11
I310
tp2
(lp3
(I0
I0
tp4
a(I1001
I15
tp5
a(I49
I77
tp6
atp7
a(lp8
S'Climber'
p9
a(I678
I245
tp10
aa(S'Text'
p11
(I498
I147
tp12
S"'TEXT TEST TEXT TEST TEXT TEST TEXT TEST.'"
p13
tp14
a.