(lp0
(S'Poly'
p1
(I124
I251
tp2
(lp3
(I0
I0
tp4
a(I243
I-8
tp5
a(I207
I153
tp6
atp7
a(S'Rope'
p8
(I628
I190
tp9
I4
tp10
a(lp11
S'Goal'
p12
a(I271
I226
tp13
aa(lp14
S'Spring'
p15
a(I484
I420
tp16
aa(lp17
S'Climber'
p18
a(I630
I283
tp19
aa.