(lp0
(S'GroundPoly'
p1
(I181
I372
tp2
(lp3
(I0
I0
tp4
a(I197
I-17
tp5
a(I344
I2
tp6
a(I343
I39
tp7
a(I160
I36
tp8
atp9
a(g1
(I181
I372
tp10
(lp11
(I160
I36
tp12
a(I-48
I46
tp13
a(I0
I0
tp14
atp15
a(lp16
S'Climber'
p17
a(I358
I309
tp18
aa.