(lp0
(S'Rope'
p1
(I144
I195
tp2
I7
tp3
a(g1
(I183
I187
tp4
I4
tp5
a(g1
(I266
I191
tp6
I7
tp7
a(g1
(I448
I204
tp8
I7
tp9
a(g1
(I595
I231
tp10
I13
tp11
a(g1
(I786
I539
tp12
I3
tp13
a(S'Poly'
p14
(I932
I622
tp15
(lp16
(I0
I0
tp17
a(I38
I-3
tp18
a(I42
I5
tp19
a(I-2
I10
tp20
atp21
a(S'Goal'
p22
(I953
I606
tp23
tp24
a(S'Block'
p25
(I30
I346
tp26
(I-25
I28
tp27
tp28
a(S'Climber'
p29
(I27
I312
tp30
tp31
a.